; Function Attrs: nounwind uwtable
define range(i32 0, 2) i32 @ossl_tdes_get_ctx_params(ptr noundef %0, ptr noundef %1) local_unnamed_addr #0 {
  %3 = tail call i32 @ossl_cipher_generic_get_ctx_params(ptr noundef %0, ptr noundef %1) #4
  %.not = icmp eq i32 %3, 0
  br i1 %.not, label %tdes_generatekey.exit.thread, label %4

4:                                                ; preds = %2
  %5 = tail call ptr @OSSL_PARAM_locate(ptr noundef %1, ptr noundef nonnull @.str.1) #4
  %.not8 = icmp eq ptr %5, null
  br i1 %.not8, label %tdes_generatekey.exit.thread, label %6

6:                                                ; preds = %4
  %7 = getelementptr inbounds nuw i8, ptr %5, i64 16
  %8 = load ptr, ptr %7, align 8, !tbaa !23
  %9 = getelementptr inbounds nuw i8, ptr %0, i64 72
  %10 = load i64, ptr %9, align 8, !tbaa !20
  %11 = icmp eq i64 %10, 0
  br i1 %11, label %tdes_generatekey.exit, label %12

12:                                               ; preds = %6
  %13 = getelementptr inbounds nuw i8, ptr %0, i64 184
  %14 = load ptr, ptr %13, align 8, !tbaa !25
  %15 = tail call i32 @RAND_priv_bytes_ex(ptr noundef %14, ptr noundef %8, i64 noundef %10, i32 noundef 0) #4
  %16 = icmp slt i32 %15, 1
  br i1 %16, label %tdes_generatekey.exit, label %17

17:                                               ; preds = %12
  tail call void @DES_set_odd_parity(ptr noundef %8) #4
  %18 = icmp ugt i64 %10, 15
  br i1 %18, label %19, label %tdes_generatekey.exit.thread

19:                                               ; preds = %17
  %20 = getelementptr inbounds nuw i8, ptr %8, i64 8
  tail call void @DES_set_odd_parity(ptr noundef nonnull %20) #4
  %21 = icmp ugt i64 %10, 23
  br i1 %21, label %22, label %tdes_generatekey.exit.thread

22:                                               ; preds = %19
  %23 = getelementptr inbounds nuw i8, ptr %8, i64 16
  tail call void @DES_set_odd_parity(ptr noundef nonnull %23) #4
  br label %tdes_generatekey.exit.thread

tdes_generatekey.exit:                            ; preds = %12, %6
  tail call void @ERR_new() #4
  tail call void @ERR_set_debug(ptr noundef nonnull @.str, i32 noundef 165, ptr noundef nonnull @__func__.ossl_tdes_get_ctx_params) #4
  tail call void (i32, i32, ptr, ...) @ERR_set_error(i32 noundef 57, i32 noundef 121, ptr noundef null) #4
  br label %tdes_generatekey.exit.thread

tdes_generatekey.exit.thread:                     ; preds = %17, %22, %19, %4, %2, %tdes_generatekey.exit
  %.0 = phi i32 [ 0, %tdes_generatekey.exit ], [ 0, %2 ], [ 1, %4 ], [ 1, %19 ], [ 1, %22 ], [ 1, %17 ]
  ret i32 %.0
}